; Function Attrs: nounwind uwtable
define ptr @Gia_ManToAigSkip(ptr noundef %0, i32 noundef %1) local_unnamed_addr #0 {
  %3 = getelementptr inbounds nuw i8, ptr %0, i64 24
  %4 = load i32, ptr %3, align 8, !tbaa !73
  %5 = getelementptr inbounds nuw i8, ptr %0, i64 64
  %6 = load ptr, ptr %5, align 8, !tbaa !66
  %7 = getelementptr i8, ptr %6, i64 4
  %.val3.i = load i32, ptr %7, align 4, !tbaa !67
  %8 = getelementptr inbounds nuw i8, ptr %0, i64 72
  %9 = load ptr, ptr %8, align 8, !tbaa !70
  %10 = getelementptr i8, ptr %9, i64 4
  %.val.i = load i32, ptr %10, align 4, !tbaa !67
  %11 = add i32 %.val.i, %.val3.i
  %12 = xor i32 %11, -1
  %13 = add i32 %4, %12
  %14 = tail call ptr @Aig_ManStart(i32 noundef %13) #17
  %15 = load ptr, ptr %0, align 8, !tbaa !51
  %.not.i = icmp eq ptr %15, null
  br i1 %.not.i, label %Abc_UtilStrsav.exit, label %16

16:                                               ; preds = %2
  %17 = tail call i64 @strlen(ptr noundef nonnull readonly dereferenceable(1) %15) #18
  %18 = add i64 %17, 1
  %19 = tail call noalias ptr @malloc(i64 noundef %18) #19
  %20 = tail call ptr @strcpy(ptr noundef nonnull dereferenceable(1) %19, ptr noundef nonnull readonly dereferenceable(1) %15) #17
  br label %Abc_UtilStrsav.exit

Abc_UtilStrsav.exit:                              ; preds = %2, %16
  %21 = phi ptr [ %19, %16 ], [ null, %2 ]
  store ptr %21, ptr %14, align 8, !tbaa !50
  %22 = getelementptr inbounds nuw i8, ptr %0, i64 8
  %23 = load ptr, ptr %22, align 8, !tbaa !53
  %.not.i60 = icmp eq ptr %23, null
  br i1 %.not.i60, label %Abc_UtilStrsav.exit61, label %24

24:                                               ; preds = %Abc_UtilStrsav.exit
  %25 = tail call i64 @strlen(ptr noundef nonnull readonly dereferenceable(1) %23) #18
  %26 = add i64 %25, 1
  %27 = tail call noalias ptr @malloc(i64 noundef %26) #19
  %28 = tail call ptr @strcpy(ptr noundef nonnull dereferenceable(1) %27, ptr noundef nonnull readonly dereferenceable(1) %23) #17
  br label %Abc_UtilStrsav.exit61

Abc_UtilStrsav.exit61:                            ; preds = %Abc_UtilStrsav.exit, %24
  %29 = phi ptr [ %27, %24 ], [ null, %Abc_UtilStrsav.exit ]
  %30 = getelementptr inbounds nuw i8, ptr %14, i64 8
  store ptr %29, ptr %30, align 8, !tbaa !52
  %31 = getelementptr inbounds nuw i8, ptr %0, i64 172
  %32 = load i32, ptr %31, align 4, !tbaa !55
  %33 = getelementptr inbounds nuw i8, ptr %14, i64 120
  store i32 %32, ptr %33, align 8, !tbaa !54
  %.val55 = load i32, ptr %3, align 8, !tbaa !73
  %34 = sext i32 %.val55 to i64
  %35 = tail call noalias ptr @calloc(i64 noundef %34, i64 noundef 8) #20
  %36 = getelementptr i8, ptr %14, i64 48
  %.val56 = load ptr, ptr %36, align 8, !tbaa !56
  %37 = ptrtoint ptr %.val56 to i64
  %38 = xor i64 %37, 1
  %39 = inttoptr i64 %38 to ptr
  store ptr %39, ptr %35, align 8, !tbaa !25
  %40 = getelementptr i8, ptr %0, i64 32
  %41 = load ptr, ptr %5, align 8, !tbaa !66
  %42 = getelementptr i8, ptr %41, i64 4
  %.val4864 = load i32, ptr %42, align 4, !tbaa !67
  %43 = icmp sgt i32 %.val4864, 0
  br i1 %43, label %.lr.ph.preheader, label %.critedge

.lr.ph.preheader:                                 ; preds = %Abc_UtilStrsav.exit61
  %.val57.pre = load ptr, ptr %40, align 8, !tbaa !41
  br label %.lr.ph

.lr.ph:                                           ; preds = %.lr.ph.preheader, %45
  %.val57 = phi ptr [ %.val57.pre, %.lr.ph.preheader ], [ %.val51, %45 ]
  %indvars.iv = phi i64 [ 0, %.lr.ph.preheader ], [ %indvars.iv.next, %45 ]
  %44 = phi ptr [ %41, %.lr.ph.preheader ], [ %58, %45 ]
  %.not = icmp eq ptr %.val57, null
  br i1 %.not, label %.critedge, label %45

45:                                               ; preds = %.lr.ph
  %46 = getelementptr i8, ptr %44, i64 8
  %.val58.val = load ptr, ptr %46, align 8, !tbaa !69
  %47 = getelementptr inbounds nuw i32, ptr %.val58.val, i64 %indvars.iv
  %48 = load i32, ptr %47, align 4, !tbaa !40
  %49 = sext i32 %48 to i64
  %50 = getelementptr inbounds %struct.Gia_Obj_t_, ptr %.val57, i64 %49
  %51 = tail call ptr @Aig_ObjCreateCi(ptr noundef nonnull %14) #17
  %.val51 = load ptr, ptr %40, align 8, !tbaa !41
  %52 = ptrtoint ptr %50 to i64
  %53 = ptrtoint ptr %.val51 to i64
  %54 = sub i64 %52, %53
  %55 = sdiv exact i64 %54, 12
  %sext = shl i64 %55, 32
  %56 = ashr exact i64 %sext, 29
  %57 = getelementptr inbounds i8, ptr %35, i64 %56
  store ptr %51, ptr %57, align 8, !tbaa !25
  %indvars.iv.next = add nuw nsw i64 %indvars.iv, 1
  %58 = load ptr, ptr %5, align 8, !tbaa !66
  %59 = getelementptr i8, ptr %58, i64 4
  %.val48 = load i32, ptr %59, align 4, !tbaa !67
  %60 = sext i32 %.val48 to i64
  %61 = icmp slt i64 %indvars.iv.next, %60
  br i1 %61, label %.lr.ph, label %.critedge, !llvm.loop !88

.critedge:                                        ; preds = %.lr.ph, %45, %Abc_UtilStrsav.exit61
  %62 = load ptr, ptr %8, align 8, !tbaa !70
  %63 = getelementptr i8, ptr %62, i64 4
  %.val67 = load i32, ptr %63, align 4, !tbaa !67
  %64 = icmp sgt i32 %.val67, 0
  br i1 %64, label %.lr.ph69, label %.critedge2

.lr.ph69:                                         ; preds = %.critedge, %99
  %indvars.iv72 = phi i64 [ %indvars.iv.next73, %99 ], [ 0, %.critedge ]
  %65 = phi ptr [ %100, %99 ], [ %62, %.critedge ]
  %.val52 = load ptr, ptr %40, align 8, !tbaa !41
  %66 = getelementptr i8, ptr %65, i64 8
  %.val53.val = load ptr, ptr %66, align 8, !tbaa !69
  %67 = getelementptr inbounds nuw i32, ptr %.val53.val, i64 %indvars.iv72
  %68 = load i32, ptr %67, align 4, !tbaa !40
  %69 = sext i32 %68 to i64
  %70 = getelementptr inbounds %struct.Gia_Obj_t_, ptr %.val52, i64 %69
  %.not46 = icmp eq ptr %.val52, null
  br i1 %.not46, label %.critedge2, label %71

71:                                               ; preds = %.lr.ph69
  %72 = load i64, ptr %70, align 4
  %73 = and i64 %72, 536870911
  %74 = sub nsw i64 0, %73
  %75 = getelementptr inbounds %struct.Gia_Obj_t_, ptr %70, i64 %74
  tail call void @Gia_ManToAig_rec(ptr noundef nonnull %14, ptr noundef nonnull %35, ptr noundef nonnull %0, ptr noundef nonnull %75)
  %76 = trunc nuw nsw i64 %indvars.iv72 to i32
  %77 = srem i32 %76, %1
  %.not47 = icmp eq i32 %77, 0
  br i1 %.not47, label %78, label %99

78:                                               ; preds = %71
  %.val50 = load ptr, ptr %40, align 8, !tbaa !41
  %79 = ptrtoint ptr %70 to i64
  %80 = ptrtoint ptr %.val50 to i64
  %81 = sub i64 %79, %80
  %82 = sdiv exact i64 %81, 12
  %.val54 = load i64, ptr %70, align 4
  %83 = and i64 %.val54, 536870911
  %84 = sub nsw i64 %82, %83
  %sext62 = shl i64 %84, 32
  %85 = ashr exact i64 %sext62, 29
  %86 = getelementptr inbounds i8, ptr %35, i64 %85
  %87 = load ptr, ptr %86, align 8, !tbaa !25
  %88 = lshr i64 %.val54, 29
  %89 = and i64 %88, 1
  %90 = ptrtoint ptr %87 to i64
  %91 = xor i64 %89, %90
  %92 = inttoptr i64 %91 to ptr
  %93 = tail call ptr @Aig_ObjCreateCo(ptr noundef nonnull %14, ptr noundef %92) #17
  %.val49 = load ptr, ptr %40, align 8, !tbaa !41
  %94 = ptrtoint ptr %.val49 to i64
  %95 = sub i64 %79, %94
  %96 = sdiv exact i64 %95, 12
  %sext63 = shl i64 %96, 32
  %97 = ashr exact i64 %sext63, 29
  %98 = getelementptr inbounds i8, ptr %35, i64 %97
  store ptr %93, ptr %98, align 8, !tbaa !25
  br label %99

99:                                               ; preds = %71, %78
  %indvars.iv.next73 = add nuw nsw i64 %indvars.iv72, 1
  %100 = load ptr, ptr %8, align 8, !tbaa !70
  %101 = getelementptr i8, ptr %100, i64 4
  %.val = load i32, ptr %101, align 4, !tbaa !67
  %102 = sext i32 %.val to i64
  %103 = icmp slt i64 %indvars.iv.next73, %102
  br i1 %103, label %.lr.ph69, label %.critedge2, !llvm.loop !89

.critedge2:                                       ; preds = %.lr.ph69, %99, %.critedge
  %104 = getelementptr i8, ptr %0, i64 16
  %.val59 = load i32, ptr %104, align 8, !tbaa !87
  tail call void @Aig_ManSetRegNum(ptr noundef nonnull %14, i32 noundef %.val59) #17
  tail call void @free(ptr noundef nonnull %35) #17
  ret ptr %14
}